target datalayout = "e-m:e-p270:32:32-p271:32:32-p272:64:64-i64:64-i128:128-f80:128-n8:16:32:64-S128"
target triple = "x86_64-pc-linux-gnu"

%class.Register = type { i32 }
%class.XMMRegister = type { i32 }

@UseAVX = external global i32, align 4
@_ZN19Abstract_VM_Version9_featuresE = external global i64, align 8

; Function Attrs: mustprogress nounwind uwtable
define linkonce_odr hidden noundef zeroext i1 @_ZN10VM_Version17supports_avx512vlEv() #1 comdat align 2 {
  %1 = load i64, ptr @_ZN19Abstract_VM_Version9_featuresE, align 8
  %2 = and i64 %1, 8589934592
  %3 = icmp ne i64 %2, 0
  ret i1 %3
}

; Function Attrs: mustprogress nounwind uwtable
define linkonce_odr hidden noundef zeroext i1 @_ZN10VM_Version13supports_evexEv() #1 comdat align 2 {
  %1 = load i64, ptr @_ZN19Abstract_VM_Version9_featuresE, align 8
  %2 = and i64 %1, 134217728
  %3 = icmp ne i64 %2, 0
  ret i1 %3
}

; Function Attrs: mustprogress nounwind uwtable
define linkonce_odr hidden noundef zeroext i1 @_ZN10VM_Version19supports_avx512novlEv() #1 comdat align 2 {
  %1 = call noundef zeroext i1 @_ZN10VM_Version13supports_evexEv()
  br i1 %1, label %2, label %5

2:                                                ; preds = %0
  %3 = call noundef zeroext i1 @_ZN10VM_Version17supports_avx512vlEv()
  %4 = xor i1 %3, true
  br label %5

5:                                                ; preds = %2, %0
  %6 = phi i1 [ false, %0 ], [ %4, %2 ]
  ret i1 %6
}

; Function Attrs: mustprogress nounwind uwtable
define linkonce_odr hidden void @_ZN14MacroAssembler12vextracti128E11XMMRegisterS0_h(ptr noundef nonnull align 8 dereferenceable(40) %0, i32 %1, i32 %2, i8 noundef zeroext %3) #1 comdat align 2 {
  %5 = alloca %class.XMMRegister, align 4
  %6 = alloca %class.XMMRegister, align 4
  %7 = alloca ptr, align 8
  %8 = alloca i8, align 1
  %9 = alloca %class.XMMRegister, align 4
  %10 = alloca %class.XMMRegister, align 4
  %11 = alloca %class.XMMRegister, align 4
  %12 = alloca %class.XMMRegister, align 4
  %13 = alloca %class.XMMRegister, align 4
  %14 = alloca %class.XMMRegister, align 4
  %15 = getelementptr inbounds %class.XMMRegister, ptr %5, i32 0, i32 0
  store i32 %1, ptr %15, align 4
  %16 = getelementptr inbounds %class.XMMRegister, ptr %6, i32 0, i32 0
  store i32 %2, ptr %16, align 4
  store ptr %0, ptr %7, align 8
  store i8 %3, ptr %8, align 1
  %17 = load ptr, ptr %7, align 8
  %18 = load i32, ptr @UseAVX, align 4
  %19 = icmp sgt i32 %18, 2
  br i1 %19, label %20, label %28

20:                                               ; preds = %4
  %21 = call noundef zeroext i1 @_ZN10VM_Version19supports_avx512novlEv()
  br i1 %21, label %22, label %28

22:                                               ; preds = %20
  call void @llvm.memcpy.p0.p0.i64(ptr align 4 %9, ptr align 4 %5, i64 4, i1 false)
  call void @llvm.memcpy.p0.p0.i64(ptr align 4 %10, ptr align 4 %6, i64 4, i1 false)
  %23 = load i8, ptr %8, align 1
  %24 = getelementptr inbounds %class.XMMRegister, ptr %9, i32 0, i32 0
  %25 = load i32, ptr %24, align 4
  %26 = getelementptr inbounds %class.XMMRegister, ptr %10, i32 0, i32 0
  %27 = load i32, ptr %26, align 4
  call void @_ZN9Assembler13vextracti32x4E11XMMRegisterS0_h(ptr noundef nonnull align 8 dereferenceable(40) %17, i32 %25, i32 %27, i8 noundef zeroext %23)
  br label %44

28:                                               ; preds = %20, %4
  %29 = load i32, ptr @UseAVX, align 4
  %30 = icmp sgt i32 %29, 1
  br i1 %30, label %31, label %37

31:                                               ; preds = %28
  call void @llvm.memcpy.p0.p0.i64(ptr align 4 %11, ptr align 4 %5, i64 4, i1 false)
  call void @llvm.memcpy.p0.p0.i64(ptr align 4 %12, ptr align 4 %6, i64 4, i1 false)
  %32 = load i8, ptr %8, align 1
  %33 = getelementptr inbounds %class.XMMRegister, ptr %11, i32 0, i32 0
  %34 = load i32, ptr %33, align 4
  %35 = getelementptr inbounds %class.XMMRegister, ptr %12, i32 0, i32 0
  %36 = load i32, ptr %35, align 4
  call void @_ZN9Assembler12vextracti128E11XMMRegisterS0_h(ptr noundef nonnull align 8 dereferenceable(40) %17, i32 %34, i32 %36, i8 noundef zeroext %32)
  br label %43

37:                                               ; preds = %28
  call void @llvm.memcpy.p0.p0.i64(ptr align 4 %13, ptr align 4 %5, i64 4, i1 false)
  call void @llvm.memcpy.p0.p0.i64(ptr align 4 %14, ptr align 4 %6, i64 4, i1 false)
  %38 = load i8, ptr %8, align 1
  %39 = getelementptr inbounds %class.XMMRegister, ptr %13, i32 0, i32 0
  %40 = load i32, ptr %39, align 4
  %41 = getelementptr inbounds %class.XMMRegister, ptr %14, i32 0, i32 0
  %42 = load i32, ptr %41, align 4
  call void @_ZN9Assembler12vextractf128E11XMMRegisterS0_h(ptr noundef nonnull align 8 dereferenceable(40) %17, i32 %40, i32 %42, i8 noundef zeroext %38)
  br label %43

43:                                               ; preds = %37, %31
  br label %44

44:                                               ; preds = %43, %22
  ret void
}

; Function Attrs: mustprogress nounwind uwtable
define linkonce_odr hidden void @_ZN14MacroAssembler18vextracti64x4_highE11XMMRegisterS0_(ptr noundef nonnull align 8 dereferenceable(40) %0, i32 %1, i32 %2) #1 comdat align 2 {
  %4 = alloca %class.XMMRegister, align 4
  %5 = alloca %class.XMMRegister, align 4
  %6 = alloca ptr, align 8
  %7 = alloca %class.XMMRegister, align 4
  %8 = alloca %class.XMMRegister, align 4
  %9 = getelementptr inbounds %class.XMMRegister, ptr %4, i32 0, i32 0
  store i32 %1, ptr %9, align 4
  %10 = getelementptr inbounds %class.XMMRegister, ptr %5, i32 0, i32 0
  store i32 %2, ptr %10, align 4
  store ptr %0, ptr %6, align 8
  %11 = load ptr, ptr %6, align 8
  call void @llvm.memcpy.p0.p0.i64(ptr align 4 %7, ptr align 4 %4, i64 4, i1 false)
  call void @llvm.memcpy.p0.p0.i64(ptr align 4 %8, ptr align 4 %5, i64 4, i1 false)
  %12 = getelementptr inbounds %class.XMMRegister, ptr %7, i32 0, i32 0
  %13 = load i32, ptr %12, align 4
  %14 = getelementptr inbounds %class.XMMRegister, ptr %8, i32 0, i32 0
  %15 = load i32, ptr %14, align 4
  call void @_ZN9Assembler13vextracti64x4E11XMMRegisterS0_h(ptr noundef nonnull align 8 dereferenceable(40) %11, i32 %13, i32 %15, i8 noundef zeroext 1)
  ret void
}

; Function Attrs: mustprogress nounwind uwtable
define linkonce_odr hidden void @_ZN14MacroAssembler17vextracti128_highE11XMMRegisterS0_(ptr noundef nonnull align 8 dereferenceable(40) %0, i32 %1, i32 %2) #1 comdat align 2 {
  %4 = alloca %class.XMMRegister, align 4
  %5 = alloca %class.XMMRegister, align 4
  %6 = alloca ptr, align 8
  %7 = alloca %class.XMMRegister, align 4
  %8 = alloca %class.XMMRegister, align 4
  %9 = getelementptr inbounds %class.XMMRegister, ptr %4, i32 0, i32 0
  store i32 %1, ptr %9, align 4
  %10 = getelementptr inbounds %class.XMMRegister, ptr %5, i32 0, i32 0
  store i32 %2, ptr %10, align 4
  store ptr %0, ptr %6, align 8
  %11 = load ptr, ptr %6, align 8
  call void @llvm.memcpy.p0.p0.i64(ptr align 4 %7, ptr align 4 %4, i64 4, i1 false)
  call void @llvm.memcpy.p0.p0.i64(ptr align 4 %8, ptr align 4 %5, i64 4, i1 false)
  %12 = getelementptr inbounds %class.XMMRegister, ptr %7, i32 0, i32 0
  %13 = load i32, ptr %12, align 4
  %14 = getelementptr inbounds %class.XMMRegister, ptr %8, i32 0, i32 0
  %15 = load i32, ptr %14, align 4
  call void @_ZN14MacroAssembler12vextracti128E11XMMRegisterS0_h(ptr noundef nonnull align 8 dereferenceable(40) %11, i32 %13, i32 %15, i8 noundef zeroext 1)
  ret void
}

; Function Attrs: mustprogress nounwind uwtable
define hidden void @_ZN17C2_MacroAssembler9reduce32SEi8RegisterS0_11XMMRegisterS1_S1_(ptr noundef nonnull align 8 dereferenceable(40) %0, i32 noundef %1, i32 %2, i32 %3, i32 %4, i32 %5, i32 %6) #1 align 2 {
  %8 = alloca %class.Register, align 4
  %9 = alloca %class.Register, align 4
  %10 = alloca %class.XMMRegister, align 4
  %11 = alloca %class.XMMRegister, align 4
  %12 = alloca %class.XMMRegister, align 4
  %13 = alloca ptr, align 8
  %14 = alloca i32, align 4
  %15 = alloca i32, align 4
  %16 = alloca %class.XMMRegister, align 4
  %17 = alloca %class.XMMRegister, align 4
  %18 = alloca %class.XMMRegister, align 4
  %19 = alloca %class.XMMRegister, align 4
  %20 = alloca %class.XMMRegister, align 4
  %21 = alloca %class.Register, align 4
  %22 = alloca %class.Register, align 4
  %23 = alloca %class.XMMRegister, align 4
  %24 = alloca %class.XMMRegister, align 4
  %25 = alloca %class.XMMRegister, align 4
  %26 = getelementptr inbounds %class.Register, ptr %8, i32 0, i32 0
  store i32 %2, ptr %26, align 4
  %27 = getelementptr inbounds %class.Register, ptr %9, i32 0, i32 0
  store i32 %3, ptr %27, align 4
  %28 = getelementptr inbounds %class.XMMRegister, ptr %10, i32 0, i32 0
  store i32 %4, ptr %28, align 4
  %29 = getelementptr inbounds %class.XMMRegister, ptr %11, i32 0, i32 0
  store i32 %5, ptr %29, align 4
  %30 = getelementptr inbounds %class.XMMRegister, ptr %12, i32 0, i32 0
  store i32 %6, ptr %30, align 4
  store ptr %0, ptr %13, align 8
  store i32 %1, ptr %14, align 4
  %31 = load ptr, ptr %13, align 8
  store i32 1, ptr %15, align 4
  call void @llvm.memcpy.p0.p0.i64(ptr align 4 %16, ptr align 4 %11, i64 4, i1 false)
  call void @llvm.memcpy.p0.p0.i64(ptr align 4 %17, ptr align 4 %10, i64 4, i1 false)
  %32 = getelementptr inbounds %class.XMMRegister, ptr %16, i32 0, i32 0
  %33 = load i32, ptr %32, align 4
  %34 = getelementptr inbounds %class.XMMRegister, ptr %17, i32 0, i32 0
  %35 = load i32, ptr %34, align 4
  call void @_ZN14MacroAssembler18vextracti64x4_highE11XMMRegisterS0_(ptr noundef nonnull align 8 dereferenceable(40) %31, i32 %33, i32 %35)
  %36 = load i32, ptr %14, align 4
  call void @llvm.memcpy.p0.p0.i64(ptr align 4 %18, ptr align 4 %11, i64 4, i1 false)
  call void @llvm.memcpy.p0.p0.i64(ptr align 4 %19, ptr align 4 %11, i64 4, i1 false)
  call void @llvm.memcpy.p0.p0.i64(ptr align 4 %20, ptr align 4 %10, i64 4, i1 false)
  %37 = getelementptr inbounds %class.XMMRegister, ptr %18, i32 0, i32 0
  %38 = load i32, ptr %37, align 4
  %39 = getelementptr inbounds %class.XMMRegister, ptr %19, i32 0, i32 0
  %40 = load i32, ptr %39, align 4
  %41 = getelementptr inbounds %class.XMMRegister, ptr %20, i32 0, i32 0
  %42 = load i32, ptr %41, align 4
  call void @_ZN17C2_MacroAssembler20reduce_operation_256E9BasicTypei11XMMRegisterS1_S1_(ptr noundef nonnull align 8 dereferenceable(40) %31, i8 noundef zeroext 9, i32 noundef %36, i32 %38, i32 %40, i32 %42)
  %43 = load i32, ptr %14, align 4
  call void @llvm.memcpy.p0.p0.i64(ptr align 4 %21, ptr align 4 %8, i64 4, i1 false)
  call void @llvm.memcpy.p0.p0.i64(ptr align 4 %22, ptr align 4 %9, i64 4, i1 false)
  call void @llvm.memcpy.p0.p0.i64(ptr align 4 %23, ptr align 4 %11, i64 4, i1 false)
  call void @llvm.memcpy.p0.p0.i64(ptr align 4 %24, ptr align 4 %11, i64 4, i1 false)
  call void @llvm.memcpy.p0.p0.i64(ptr align 4 %25, ptr align 4 %12, i64 4, i1 false)
  %44 = getelementptr inbounds %class.Register, ptr %21, i32 0, i32 0
  %45 = load i32, ptr %44, align 4
  %46 = getelementptr inbounds %class.Register, ptr %22, i32 0, i32 0
  %47 = load i32, ptr %46, align 4
  %48 = getelementptr inbounds %class.XMMRegister, ptr %23, i32 0, i32 0
  %49 = load i32, ptr %48, align 4
  %50 = getelementptr inbounds %class.XMMRegister, ptr %24, i32 0, i32 0
  %51 = load i32, ptr %50, align 4
  %52 = getelementptr inbounds %class.XMMRegister, ptr %25, i32 0, i32 0
  %53 = load i32, ptr %52, align 4
  call void @_ZN17C2_MacroAssembler9reduce16SEi8RegisterS0_11XMMRegisterS1_S1_(ptr noundef nonnull align 8 dereferenceable(40) %31, i32 noundef %43, i32 %45, i32 %47, i32 %49, i32 %51, i32 %53)
  ret void
}

; Function Attrs: mustprogress nounwind uwtable
define linkonce_odr hidden noundef zeroext i1 @_ZN10VM_Version17supports_avx512bwEv() #1 comdat align 2 {
  %1 = load i64, ptr @_ZN19Abstract_VM_Version9_featuresE, align 8
  %2 = and i64 %1, 4294967296
  %3 = icmp ne i64 %2, 0
  ret i1 %3
}

; Function Attrs: mustprogress nounwind uwtable
define hidden void @_ZN17C2_MacroAssembler12mulreduce32BEi8RegisterS0_11XMMRegisterS1_S1_(ptr noundef nonnull align 8 dereferenceable(40) %0, i32 noundef %1, i32 %2, i32 %3, i32 %4, i32 %5, i32 %6) #1 align 2 {
  %8 = alloca %class.Register, align 4
  %9 = alloca %class.Register, align 4
  %10 = alloca %class.XMMRegister, align 4
  %11 = alloca %class.XMMRegister, align 4
  %12 = alloca %class.XMMRegister, align 4
  %13 = alloca ptr, align 8
  %14 = alloca i32, align 4
  %15 = alloca i32, align 4
  %16 = alloca %class.XMMRegister, align 4
  %17 = alloca %class.XMMRegister, align 4
  %18 = alloca %class.Register, align 4
  %19 = alloca %class.Register, align 4
  %20 = alloca %class.XMMRegister, align 4
  %21 = alloca %class.XMMRegister, align 4
  %22 = alloca %class.XMMRegister, align 4
  %23 = alloca %class.Register, align 4
  %24 = alloca %class.Register, align 4
  %25 = alloca %class.XMMRegister, align 4
  %26 = alloca %class.XMMRegister, align 4
  %27 = alloca %class.XMMRegister, align 4
  %28 = alloca %class.XMMRegister, align 4
  %29 = alloca %class.XMMRegister, align 4
  %30 = alloca %class.Register, align 4
  %31 = alloca %class.Register, align 4
  %32 = alloca %class.XMMRegister, align 4
  %33 = alloca %class.XMMRegister, align 4
  %34 = alloca %class.XMMRegister, align 4
  %35 = getelementptr inbounds %class.Register, ptr %8, i32 0, i32 0
  store i32 %2, ptr %35, align 4
  %36 = getelementptr inbounds %class.Register, ptr %9, i32 0, i32 0
  store i32 %3, ptr %36, align 4
  %37 = getelementptr inbounds %class.XMMRegister, ptr %10, i32 0, i32 0
  store i32 %4, ptr %37, align 4
  %38 = getelementptr inbounds %class.XMMRegister, ptr %11, i32 0, i32 0
  store i32 %5, ptr %38, align 4
  %39 = getelementptr inbounds %class.XMMRegister, ptr %12, i32 0, i32 0
  store i32 %6, ptr %39, align 4
  store ptr %0, ptr %13, align 8
  store i32 %1, ptr %14, align 4
  %40 = load ptr, ptr %13, align 8
  %41 = load i32, ptr @UseAVX, align 4
  %42 = icmp sgt i32 %41, 2
  br i1 %42, label %43, label %62

43:                                               ; preds = %7
  %44 = call noundef zeroext i1 @_ZN10VM_Version17supports_avx512bwEv()
  br i1 %44, label %45, label %62

45:                                               ; preds = %43
  store i32 2, ptr %15, align 4
  call void @llvm.memcpy.p0.p0.i64(ptr align 4 %16, ptr align 4 %11, i64 4, i1 false)
  call void @llvm.memcpy.p0.p0.i64(ptr align 4 %17, ptr align 4 %10, i64 4, i1 false)
  %46 = load i32, ptr %15, align 4
  %47 = getelementptr inbounds %class.XMMRegister, ptr %16, i32 0, i32 0
  %48 = load i32, ptr %47, align 4
  %49 = getelementptr inbounds %class.XMMRegister, ptr %17, i32 0, i32 0
  %50 = load i32, ptr %49, align 4
  call void @_ZN9Assembler9vpmovsxbwE11XMMRegisterS0_i(ptr noundef nonnull align 8 dereferenceable(40) %40, i32 %48, i32 %50, i32 noundef %46)
  %51 = load i32, ptr %14, align 4
  call void @llvm.memcpy.p0.p0.i64(ptr align 4 %18, ptr align 4 %8, i64 4, i1 false)
  call void @llvm.memcpy.p0.p0.i64(ptr align 4 %19, ptr align 4 %9, i64 4, i1 false)
  call void @llvm.memcpy.p0.p0.i64(ptr align 4 %20, ptr align 4 %11, i64 4, i1 false)
  call void @llvm.memcpy.p0.p0.i64(ptr align 4 %21, ptr align 4 %11, i64 4, i1 false)
  call void @llvm.memcpy.p0.p0.i64(ptr align 4 %22, ptr align 4 %12, i64 4, i1 false)
  %52 = getelementptr inbounds %class.Register, ptr %18, i32 0, i32 0
  %53 = load i32, ptr %52, align 4
  %54 = getelementptr inbounds %class.Register, ptr %19, i32 0, i32 0
  %55 = load i32, ptr %54, align 4
  %56 = getelementptr inbounds %class.XMMRegister, ptr %20, i32 0, i32 0
  %57 = load i32, ptr %56, align 4
  %58 = getelementptr inbounds %class.XMMRegister, ptr %21, i32 0, i32 0
  %59 = load i32, ptr %58, align 4
  %60 = getelementptr inbounds %class.XMMRegister, ptr %22, i32 0, i32 0
  %61 = load i32, ptr %60, align 4
  call void @_ZN17C2_MacroAssembler9reduce32SEi8RegisterS0_11XMMRegisterS1_S1_(ptr noundef nonnull align 8 dereferenceable(40) %40, i32 noundef %51, i32 %53, i32 %55, i32 %57, i32 %59, i32 %61)
  br label %89

62:                                               ; preds = %43, %7
  %63 = load i32, ptr %14, align 4
  call void @llvm.memcpy.p0.p0.i64(ptr align 4 %23, ptr align 4 %8, i64 4, i1 false)
  call void @llvm.memcpy.p0.p0.i64(ptr align 4 %24, ptr align 4 %9, i64 4, i1 false)
  call void @llvm.memcpy.p0.p0.i64(ptr align 4 %25, ptr align 4 %10, i64 4, i1 false)
  call void @llvm.memcpy.p0.p0.i64(ptr align 4 %26, ptr align 4 %11, i64 4, i1 false)
  call void @llvm.memcpy.p0.p0.i64(ptr align 4 %27, ptr align 4 %12, i64 4, i1 false)
  %64 = getelementptr inbounds %class.Register, ptr %23, i32 0, i32 0
  %65 = load i32, ptr %64, align 4
  %66 = getelementptr inbounds %class.Register, ptr %24, i32 0, i32 0
  %67 = load i32, ptr %66, align 4
  %68 = getelementptr inbounds %class.XMMRegister, ptr %25, i32 0, i32 0
  %69 = load i32, ptr %68, align 4
  %70 = getelementptr inbounds %class.XMMRegister, ptr %26, i32 0, i32 0
  %71 = load i32, ptr %70, align 4
  %72 = getelementptr inbounds %class.XMMRegister, ptr %27, i32 0, i32 0
  %73 = load i32, ptr %72, align 4
  call void @_ZN17C2_MacroAssembler12mulreduce16BEi8RegisterS0_11XMMRegisterS1_S1_(ptr noundef nonnull align 8 dereferenceable(40) %40, i32 noundef %63, i32 %65, i32 %67, i32 %69, i32 %71, i32 %73)
  call void @llvm.memcpy.p0.p0.i64(ptr align 4 %28, ptr align 4 %12, i64 4, i1 false)
  call void @llvm.memcpy.p0.p0.i64(ptr align 4 %29, ptr align 4 %10, i64 4, i1 false)
  %74 = getelementptr inbounds %class.XMMRegister, ptr %28, i32 0, i32 0
  %75 = load i32, ptr %74, align 4
  %76 = getelementptr inbounds %class.XMMRegister, ptr %29, i32 0, i32 0
  %77 = load i32, ptr %76, align 4
  call void @_ZN14MacroAssembler17vextracti128_highE11XMMRegisterS0_(ptr noundef nonnull align 8 dereferenceable(40) %40, i32 %75, i32 %77)
  %78 = load i32, ptr %14, align 4
  call void @llvm.memcpy.p0.p0.i64(ptr align 4 %30, ptr align 4 %8, i64 4, i1 false)
  call void @llvm.memcpy.p0.p0.i64(ptr align 4 %31, ptr align 4 %8, i64 4, i1 false)
  call void @llvm.memcpy.p0.p0.i64(ptr align 4 %32, ptr align 4 %12, i64 4, i1 false)
  call void @llvm.memcpy.p0.p0.i64(ptr align 4 %33, ptr align 4 %11, i64 4, i1 false)
  call void @llvm.memcpy.p0.p0.i64(ptr align 4 %34, ptr align 4 %12, i64 4, i1 false)
  %79 = getelementptr inbounds %class.Register, ptr %30, i32 0, i32 0
  %80 = load i32, ptr %79, align 4
  %81 = getelementptr inbounds %class.Register, ptr %31, i32 0, i32 0
  %82 = load i32, ptr %81, align 4
  %83 = getelementptr inbounds %class.XMMRegister, ptr %32, i32 0, i32 0
  %84 = load i32, ptr %83, align 4
  %85 = getelementptr inbounds %class.XMMRegister, ptr %33, i32 0, i32 0
  %86 = load i32, ptr %85, align 4
  %87 = getelementptr inbounds %class.XMMRegister, ptr %34, i32 0, i32 0
  %88 = load i32, ptr %87, align 4
  call void @_ZN17C2_MacroAssembler12mulreduce16BEi8RegisterS0_11XMMRegisterS1_S1_(ptr noundef nonnull align 8 dereferenceable(40) %40, i32 noundef %78, i32 %80, i32 %82, i32 %84, i32 %86, i32 %88)
  br label %89

89:                                               ; preds = %62, %45
  ret void
}