; Function Attrs: mustprogress nounwind uwtable
define hidden void @_ZN17C2_MacroAssembler12mulreduce32BEi8RegisterS0_11XMMRegisterS1_S1_(ptr noundef nonnull align 8 dereferenceable(40) %0, i32 noundef %1, i32 %2, i32 %3, i32 %4, i32 %5, i32 %6) local_unnamed_addr #0 align 2 {
  %8 = load i32, ptr @UseAVX, align 4
  %9 = icmp sgt i32 %8, 2
  br i1 %9, label %10, label %14

10:                                               ; preds = %7
  %11 = load i64, ptr @_ZN19Abstract_VM_Version9_featuresE, align 8
  %12 = and i64 %11, 4294967296
  %.not = icmp eq i64 %12, 0
  br i1 %.not, label %14, label %13

13:                                               ; preds = %10
  tail call void @_ZN9Assembler9vpmovsxbwE11XMMRegisterS0_i(ptr noundef nonnull align 8 dereferenceable(40) %0, i32 %5, i32 %4, i32 noundef 2) #11
  tail call void @_ZN9Assembler13vextracti64x4E11XMMRegisterS0_h(ptr noundef nonnull align 8 dereferenceable(40) %0, i32 %5, i32 %5, i8 noundef zeroext 1) #11
  tail call void @_ZN17C2_MacroAssembler20reduce_operation_256E9BasicTypei11XMMRegisterS1_S1_(ptr noundef nonnull align 8 dereferenceable(40) %0, i8 noundef zeroext 9, i32 noundef %1, i32 %5, i32 %5, i32 %5)
  tail call void @_ZN17C2_MacroAssembler9reduce16SEi8RegisterS0_11XMMRegisterS1_S1_(ptr noundef nonnull align 8 dereferenceable(40) %0, i32 noundef %1, i32 %2, i32 %3, i32 %5, i32 %5, i32 %6)
  br label %25

14:                                               ; preds = %10, %7
  tail call void @_ZN17C2_MacroAssembler12mulreduce16BEi8RegisterS0_11XMMRegisterS1_S1_(ptr noundef nonnull align 8 dereferenceable(40) %0, i32 noundef %1, i32 %2, i32 %3, i32 %4, i32 %5, i32 %6)
  %15 = load i32, ptr @UseAVX, align 4
  %16 = icmp sgt i32 %15, 2
  br i1 %16, label %17, label %22

17:                                               ; preds = %14
  %18 = load i64, ptr @_ZN19Abstract_VM_Version9_featuresE, align 8
  %19 = and i64 %18, 8724152320
  %20 = icmp eq i64 %19, 134217728
  br i1 %20, label %21, label %.thread.i.i

21:                                               ; preds = %17
  tail call void @_ZN9Assembler13vextracti32x4E11XMMRegisterS0_h(ptr noundef nonnull align 8 dereferenceable(40) %0, i32 %6, i32 %4, i8 noundef zeroext 1) #11
  br label %_ZN14MacroAssembler17vextracti128_highE11XMMRegisterS0_.exit

22:                                               ; preds = %14
  %23 = icmp eq i32 %15, 2
  br i1 %23, label %.thread.i.i, label %24

.thread.i.i:                                      ; preds = %22, %17
  tail call void @_ZN9Assembler12vextracti128E11XMMRegisterS0_h(ptr noundef nonnull align 8 dereferenceable(40) %0, i32 %6, i32 %4, i8 noundef zeroext 1) #11
  br label %_ZN14MacroAssembler17vextracti128_highE11XMMRegisterS0_.exit

24:                                               ; preds = %22
  tail call void @_ZN9Assembler12vextractf128E11XMMRegisterS0_h(ptr noundef nonnull align 8 dereferenceable(40) %0, i32 %6, i32 %4, i8 noundef zeroext 1) #11
  br label %_ZN14MacroAssembler17vextracti128_highE11XMMRegisterS0_.exit

_ZN14MacroAssembler17vextracti128_highE11XMMRegisterS0_.exit: ; preds = %21, %.thread.i.i, %24
  tail call void @_ZN17C2_MacroAssembler12mulreduce16BEi8RegisterS0_11XMMRegisterS1_S1_(ptr noundef nonnull align 8 dereferenceable(40) %0, i32 noundef %1, i32 %2, i32 %2, i32 %6, i32 %5, i32 %6)
  br label %25

25:                                               ; preds = %_ZN14MacroAssembler17vextracti128_highE11XMMRegisterS0_.exit, %13
  ret void
}